target datalayout = "e-m:e-p270:32:32-p271:32:32-p272:64:64-i64:64-i128:128-f80:128-n8:16:32:64-S128"
target triple = "x86_64-pc-linux-gnu"

%"class.clang::SourceLocation" = type { i32 }
%"class.llvm::iterator_range.1384" = type { ptr, ptr }
%"class.llvm::MutableArrayRef.1385" = type { %"class.llvm::ArrayRef.1386" }
%"class.llvm::ArrayRef.1386" = type { ptr, i64 }
%"class.clang::OMPClause" = type { %"class.clang::SourceLocation", %"class.clang::SourceLocation", i32 }
%"class.clang::OMPClauseWithPreInit.base" = type <{ ptr, i32 }>
%"class.clang::OMPClauseWithPreInit" = type <{ ptr, i32, [4 x i8] }>
%"class.clang::OMPVarListClause.1535" = type { %"class.clang::OMPClause", %"class.clang::SourceLocation", i32 }
%"class.clang::OMPNumTeamsClause" = type { %"class.clang::OMPVarListClause.1535", [4 x i8], %"class.clang::OMPClauseWithPreInit.base", %"class.clang::SourceLocation" }

; Function Attrs: mustprogress nounwind uwtable
define linkonce_odr hidden noundef i64 @_ZN4llvm15TrailingObjectsIN5clang17OMPNumTeamsClauseEJPNS1_4ExprEEE22callNumTrailingObjectsEPKS2_NS_25trailing_objects_internal19TrailingObjectsBase13OverloadTokenIS2_EE(ptr noundef %0) #0 comdat align 2 {
  %2 = alloca ptr, align 8
  store ptr %0, ptr %2, align 8
  ret i64 1
}

; Function Attrs: mustprogress nounwind uwtable
define linkonce_odr hidden noundef ptr @_ZN4llvm15TrailingObjectsIN5clang17OMPNumTeamsClauseEJPNS1_4ExprEEE22getTrailingObjectsImplEPS2_NS_25trailing_objects_internal19TrailingObjectsBase13OverloadTokenIS2_EE(ptr noundef %0) #0 comdat align 2 {
  %2 = alloca ptr, align 8
  store ptr %0, ptr %2, align 8
  %3 = load ptr, ptr %2, align 8
  ret ptr %3
}

; Function Attrs: mustprogress nounwind uwtable
define linkonce_odr hidden noundef ptr @_ZNK4llvm8ArrayRefIPN5clang4ExprEE4dataEv(ptr noundef nonnull align 8 dereferenceable(16) %0) #0 comdat align 2 {
  %2 = alloca ptr, align 8
  store ptr %0, ptr %2, align 8
  %3 = load ptr, ptr %2, align 8
  %4 = getelementptr inbounds nuw %"class.llvm::ArrayRef.1386", ptr %3, i32 0, i32 0
  %5 = load ptr, ptr %4, align 8
  ret ptr %5
}

; Function Attrs: mustprogress nounwind uwtable
define linkonce_odr hidden void @_ZN4llvm8ArrayRefIPN5clang4ExprEEC2EPKS3_m(ptr noundef nonnull align 8 dereferenceable(16) %0, ptr noundef %1, i64 noundef %2) unnamed_addr #0 comdat align 2 {
  %4 = alloca ptr, align 8
  %5 = alloca ptr, align 8
  %6 = alloca i64, align 8
  store ptr %0, ptr %4, align 8
  store ptr %1, ptr %5, align 8
  store i64 %2, ptr %6, align 8
  %7 = load ptr, ptr %4, align 8
  %8 = getelementptr inbounds nuw %"class.llvm::ArrayRef.1386", ptr %7, i32 0, i32 0
  %9 = load ptr, ptr %5, align 8
  store ptr %9, ptr %8, align 8
  %10 = getelementptr inbounds nuw %"class.llvm::ArrayRef.1386", ptr %7, i32 0, i32 1
  %11 = load i64, ptr %6, align 8
  store i64 %11, ptr %10, align 8
  ret void
}

; Function Attrs: mustprogress nounwind uwtable
define linkonce_odr hidden noundef ptr @_ZN4llvm25trailing_objects_internal19TrailingObjectsImplILi8EN5clang17OMPNumTeamsClauseENS_15TrailingObjectsIS3_JPNS2_4ExprEEEES3_JS6_EE22getTrailingObjectsImplEPS3_NS0_19TrailingObjectsBase13OverloadTokenIS6_EE(ptr noundef %0) #0 comdat align 2 {
  %2 = alloca ptr, align 8
  %3 = alloca ptr, align 8
  store ptr %0, ptr %2, align 8
  %4 = load ptr, ptr %2, align 8
  %5 = call noundef ptr @_ZN4llvm15TrailingObjectsIN5clang17OMPNumTeamsClauseEJPNS1_4ExprEEE22getTrailingObjectsImplEPS2_NS_25trailing_objects_internal19TrailingObjectsBase13OverloadTokenIS2_EE(ptr noundef %4)
  %6 = load ptr, ptr %2, align 8
  %7 = call noundef i64 @_ZN4llvm15TrailingObjectsIN5clang17OMPNumTeamsClauseEJPNS1_4ExprEEE22callNumTrailingObjectsEPKS2_NS_25trailing_objects_internal19TrailingObjectsBase13OverloadTokenIS2_EE(ptr noundef %6)
  %8 = getelementptr inbounds %"class.clang::OMPNumTeamsClause", ptr %5, i64 %7
  store ptr %8, ptr %3, align 8
  %9 = load ptr, ptr %3, align 8
  ret ptr %9
}

; Function Attrs: mustprogress nounwind uwtable
define linkonce_odr hidden void @_ZN4llvm15TrailingObjectsIN5clang17OMPNumTeamsClauseEJPNS1_4ExprEEE31verifyTrailingObjectsAssertionsEv() #0 comdat align 2 {
  ret void
}

; Function Attrs: mustprogress nounwind uwtable
define linkonce_odr hidden noundef i64 @_ZNK4llvm8ArrayRefIPN5clang4ExprEE4sizeEv(ptr noundef nonnull align 8 dereferenceable(16) %0) #0 comdat align 2 {
  %2 = alloca ptr, align 8
  store ptr %0, ptr %2, align 8
  %3 = load ptr, ptr %2, align 8
  %4 = getelementptr inbounds nuw %"class.llvm::ArrayRef.1386", ptr %3, i32 0, i32 1
  %5 = load i64, ptr %4, align 8
  ret i64 %5
}

; Function Attrs: mustprogress nounwind uwtable
define linkonce_odr hidden noundef ptr @_ZNK4llvm15MutableArrayRefIPN5clang4ExprEE4dataEv(ptr noundef nonnull align 8 dereferenceable(16) %0) #0 comdat align 2 {
  %2 = alloca ptr, align 8
  store ptr %0, ptr %2, align 8
  %3 = load ptr, ptr %2, align 8
  %4 = call noundef ptr @_ZNK4llvm8ArrayRefIPN5clang4ExprEE4dataEv(ptr noundef nonnull align 8 dereferenceable(16) %3)
  ret ptr %4
}

; Function Attrs: mustprogress nounwind uwtable
define linkonce_odr hidden void @_ZN4llvm15MutableArrayRefIPN5clang4ExprEEC2EPS3_m(ptr noundef nonnull align 8 dereferenceable(16) %0, ptr noundef %1, i64 noundef %2) unnamed_addr #0 comdat align 2 {
  %4 = alloca ptr, align 8
  %5 = alloca ptr, align 8
  %6 = alloca i64, align 8
  store ptr %0, ptr %4, align 8
  store ptr %1, ptr %5, align 8
  store i64 %2, ptr %6, align 8
  %7 = load ptr, ptr %4, align 8
  %8 = load ptr, ptr %5, align 8
  %9 = load i64, ptr %6, align 8
  call void @_ZN4llvm8ArrayRefIPN5clang4ExprEEC2EPKS3_m(ptr noundef nonnull align 8 dereferenceable(16) %7, ptr noundef %8, i64 noundef %9)
  ret void
}

; Function Attrs: mustprogress nounwind uwtable
define linkonce_odr hidden noundef ptr @_ZN4llvm15TrailingObjectsIN5clang17OMPNumTeamsClauseEJPNS1_4ExprEEE18getTrailingObjectsIS4_EEPT_v(ptr noundef nonnull align 8 dereferenceable(8) %0) #0 comdat align 2 {
  %2 = alloca ptr, align 8
  store ptr %0, ptr %2, align 8
  %3 = load ptr, ptr %2, align 8
  call void @_ZN4llvm15TrailingObjectsIN5clang17OMPNumTeamsClauseEJPNS1_4ExprEEE31verifyTrailingObjectsAssertionsEv()
  %4 = call noundef ptr @_ZN4llvm25trailing_objects_internal19TrailingObjectsImplILi8EN5clang17OMPNumTeamsClauseENS_15TrailingObjectsIS3_JPNS2_4ExprEEEES3_JS6_EE22getTrailingObjectsImplEPS3_NS0_19TrailingObjectsBase13OverloadTokenIS6_EE(ptr noundef %3)
  ret ptr %4
}

; Function Attrs: mustprogress nounwind uwtable
define linkonce_odr hidden noundef ptr @_ZNK4llvm15MutableArrayRefIPN5clang4ExprEE3endEv(ptr noundef nonnull align 8 dereferenceable(16) %0) #0 comdat align 2 {
  %2 = alloca ptr, align 8
  store ptr %0, ptr %2, align 8
  %3 = load ptr, ptr %2, align 8
  %4 = call noundef ptr @_ZNK4llvm15MutableArrayRefIPN5clang4ExprEE4dataEv(ptr noundef nonnull align 8 dereferenceable(16) %3)
  %5 = call noundef i64 @_ZNK4llvm8ArrayRefIPN5clang4ExprEE4sizeEv(ptr noundef nonnull align 8 dereferenceable(16) %3)
  %6 = getelementptr inbounds ptr, ptr %4, i64 %5
  ret ptr %6
}

; Function Attrs: mustprogress nounwind uwtable
define linkonce_odr hidden noundef ptr @_ZNK4llvm15MutableArrayRefIPN5clang4ExprEE5beginEv(ptr noundef nonnull align 8 dereferenceable(16) %0) #0 comdat align 2 {
  %2 = alloca ptr, align 8
  store ptr %0, ptr %2, align 8
  %3 = load ptr, ptr %2, align 8
  %4 = call noundef ptr @_ZNK4llvm15MutableArrayRefIPN5clang4ExprEE4dataEv(ptr noundef nonnull align 8 dereferenceable(16) %3)
  ret ptr %4
}

; Function Attrs: mustprogress nounwind uwtable
define linkonce_odr hidden { ptr, i64 } @_ZN5clang16OMPVarListClauseINS_17OMPNumTeamsClauseEE10getVarRefsEv(ptr noundef nonnull align 4 dereferenceable(20) %0) #0 comdat align 2 {
  %2 = alloca %"class.llvm::MutableArrayRef.1385", align 8
  %3 = alloca ptr, align 8
  store ptr %0, ptr %3, align 8
  %4 = load ptr, ptr %3, align 8
  %5 = call noundef ptr @_ZN4llvm15TrailingObjectsIN5clang17OMPNumTeamsClauseEJPNS1_4ExprEEE18getTrailingObjectsIS4_EEPT_v(ptr noundef nonnull align 8 dereferenceable(8) %4)
  %6 = getelementptr inbounds nuw %"class.clang::OMPVarListClause.1535", ptr %4, i32 0, i32 2
  %7 = load i32, ptr %6, align 4
  %8 = zext i32 %7 to i64
  call void @_ZN4llvm15MutableArrayRefIPN5clang4ExprEEC2EPS3_m(ptr noundef nonnull align 8 dereferenceable(16) %2, ptr noundef %5, i64 noundef %8)
  %9 = getelementptr inbounds nuw %"class.llvm::MutableArrayRef.1385", ptr %2, i32 0, i32 0
  %10 = load { ptr, i64 }, ptr %9, align 8
  ret { ptr, i64 } %10
}

; Function Attrs: mustprogress nounwind uwtable
define linkonce_odr hidden void @_ZN4llvm14iterator_rangeIPPN5clang4ExprEEC2ES4_S4_(ptr noundef nonnull align 8 dereferenceable(16) %0, ptr noundef %1, ptr noundef %2) unnamed_addr #0 comdat align 2 {
  %4 = alloca ptr, align 8
  %5 = alloca ptr, align 8
  %6 = alloca ptr, align 8
  store ptr %0, ptr %4, align 8
  store ptr %1, ptr %5, align 8
  store ptr %2, ptr %6, align 8
  %7 = load ptr, ptr %4, align 8
  %8 = getelementptr inbounds nuw %"class.llvm::iterator_range.1384", ptr %7, i32 0, i32 0
  %9 = load ptr, ptr %5, align 8
  store ptr %9, ptr %8, align 8
  %10 = getelementptr inbounds nuw %"class.llvm::iterator_range.1384", ptr %7, i32 0, i32 1
  %11 = load ptr, ptr %6, align 8
  store ptr %11, ptr %10, align 8
  ret void
}

; Function Attrs: mustprogress nounwind uwtable
define linkonce_odr hidden noundef ptr @_ZN5clang16OMPVarListClauseINS_17OMPNumTeamsClauseEE11varlist_endEv(ptr noundef nonnull align 4 dereferenceable(20) %0) #0 comdat align 2 {
  %2 = alloca ptr, align 8
  %3 = alloca %"class.llvm::MutableArrayRef.1385", align 8
  store ptr %0, ptr %2, align 8
  %4 = load ptr, ptr %2, align 8
  %5 = call { ptr, i64 } @_ZN5clang16OMPVarListClauseINS_17OMPNumTeamsClauseEE10getVarRefsEv(ptr noundef nonnull align 4 dereferenceable(20) %4)
  %6 = getelementptr inbounds nuw %"class.llvm::MutableArrayRef.1385", ptr %3, i32 0, i32 0
  %7 = getelementptr inbounds nuw { ptr, i64 }, ptr %6, i32 0, i32 0
  %8 = extractvalue { ptr, i64 } %5, 0
  store ptr %8, ptr %7, align 8
  %9 = getelementptr inbounds nuw { ptr, i64 }, ptr %6, i32 0, i32 1
  %10 = extractvalue { ptr, i64 } %5, 1
  store i64 %10, ptr %9, align 8
  %11 = call noundef ptr @_ZNK4llvm15MutableArrayRefIPN5clang4ExprEE3endEv(ptr noundef nonnull align 8 dereferenceable(16) %3)
  ret ptr %11
}

; Function Attrs: mustprogress nounwind uwtable
define linkonce_odr hidden noundef ptr @_ZN5clang16OMPVarListClauseINS_17OMPNumTeamsClauseEE13varlist_beginEv(ptr noundef nonnull align 4 dereferenceable(20) %0) #0 comdat align 2 {
  %2 = alloca ptr, align 8
  %3 = alloca %"class.llvm::MutableArrayRef.1385", align 8
  store ptr %0, ptr %2, align 8
  %4 = load ptr, ptr %2, align 8
  %5 = call { ptr, i64 } @_ZN5clang16OMPVarListClauseINS_17OMPNumTeamsClauseEE10getVarRefsEv(ptr noundef nonnull align 4 dereferenceable(20) %4)
  %6 = getelementptr inbounds nuw %"class.llvm::MutableArrayRef.1385", ptr %3, i32 0, i32 0
  %7 = getelementptr inbounds nuw { ptr, i64 }, ptr %6, i32 0, i32 0
  %8 = extractvalue { ptr, i64 } %5, 0
  store ptr %8, ptr %7, align 8
  %9 = getelementptr inbounds nuw { ptr, i64 }, ptr %6, i32 0, i32 1
  %10 = extractvalue { ptr, i64 } %5, 1
  store i64 %10, ptr %9, align 8
  %11 = call noundef ptr @_ZNK4llvm15MutableArrayRefIPN5clang4ExprEE5beginEv(ptr noundef nonnull align 8 dereferenceable(16) %3)
  ret ptr %11
}

; Function Attrs: mustprogress nounwind uwtable
define linkonce_odr hidden noundef ptr @_ZN5clang20OMPClauseWithPreInit14getPreInitStmtEv(ptr noundef nonnull align 8 dereferenceable(12) %0) #0 comdat align 2 {
  %2 = alloca ptr, align 8
  store ptr %0, ptr %2, align 8
  %3 = load ptr, ptr %2, align 8
  %4 = getelementptr inbounds nuw %"class.clang::OMPClauseWithPreInit", ptr %3, i32 0, i32 0
  %5 = load ptr, ptr %4, align 8
  ret ptr %5
}

; Function Attrs: mustprogress nounwind uwtable
define linkonce_odr hidden noundef ptr @_ZNK4llvm14iterator_rangeIPPN5clang4ExprEE3endEv(ptr noundef nonnull align 8 dereferenceable(16) %0) #0 comdat align 2 {
  %2 = alloca ptr, align 8
  store ptr %0, ptr %2, align 8
  %3 = load ptr, ptr %2, align 8
  %4 = getelementptr inbounds nuw %"class.llvm::iterator_range.1384", ptr %3, i32 0, i32 1
  %5 = load ptr, ptr %4, align 8
  ret ptr %5
}

; Function Attrs: mustprogress nounwind uwtable
define linkonce_odr hidden noundef ptr @_ZNK4llvm14iterator_rangeIPPN5clang4ExprEE5beginEv(ptr noundef nonnull align 8 dereferenceable(16) %0) #0 comdat align 2 {
  %2 = alloca ptr, align 8
  store ptr %0, ptr %2, align 8
  %3 = load ptr, ptr %2, align 8
  %4 = getelementptr inbounds nuw %"class.llvm::iterator_range.1384", ptr %3, i32 0, i32 0
  %5 = load ptr, ptr %4, align 8
  ret ptr %5
}

; Function Attrs: mustprogress nounwind uwtable
define linkonce_odr hidden { ptr, ptr } @_ZN5clang16OMPVarListClauseINS_17OMPNumTeamsClauseEE7varlistEv(ptr noundef nonnull align 4 dereferenceable(20) %0) #0 comdat align 2 {
  %2 = alloca %"class.llvm::iterator_range.1384", align 8
  %3 = alloca ptr, align 8
  store ptr %0, ptr %3, align 8
  %4 = load ptr, ptr %3, align 8
  %5 = call noundef ptr @_ZN5clang16OMPVarListClauseINS_17OMPNumTeamsClauseEE13varlist_beginEv(ptr noundef nonnull align 4 dereferenceable(20) %4)
  %6 = call noundef ptr @_ZN5clang16OMPVarListClauseINS_17OMPNumTeamsClauseEE11varlist_endEv(ptr noundef nonnull align 4 dereferenceable(20) %4)
  call void @_ZN4llvm14iterator_rangeIPPN5clang4ExprEEC2ES4_S4_(ptr noundef nonnull align 8 dereferenceable(16) %2, ptr noundef %5, ptr noundef %6)
  %7 = load { ptr, ptr }, ptr %2, align 8
  ret { ptr, ptr } %7
}

; Function Attrs: mustprogress nounwind uwtable
define internal noundef zeroext i1 @_ZN5clang19RecursiveASTVisitorIN12_GLOBAL__N_113EHCodeVisitorEE25VisitOMPClauseWithPreInitEPNS_20OMPClauseWithPreInitE(ptr noundef nonnull align 1 dereferenceable(1) %0, ptr noundef %1) #0 align 2 {
  %3 = alloca i1, align 1
  %4 = alloca ptr, align 8
  %5 = alloca ptr, align 8
  store ptr %0, ptr %4, align 8
  store ptr %1, ptr %5, align 8
  %6 = load ptr, ptr %4, align 8
  br label %7

7:                                                ; preds = %2
  %8 = call noundef nonnull align 8 dereferenceable(16) ptr @_ZN5clang19RecursiveASTVisitorIN12_GLOBAL__N_113EHCodeVisitorEE10getDerivedEv(ptr noundef nonnull align 1 dereferenceable(1) %6)
  %9 = load ptr, ptr %5, align 8
  %10 = call noundef ptr @_ZN5clang20OMPClauseWithPreInit14getPreInitStmtEv(ptr noundef nonnull align 8 dereferenceable(12) %9)
  %11 = call noundef zeroext i1 @_ZN5clang19RecursiveASTVisitorIN12_GLOBAL__N_113EHCodeVisitorEE12TraverseStmtEPNS_4StmtEPN4llvm15SmallVectorImplINS6_14PointerIntPairIS5_Lj1EbNS6_21PointerLikeTypeTraitsIS5_EENS6_18PointerIntPairInfoIS5_Lj1ESA_EEEEEE(ptr noundef nonnull align 1 dereferenceable(1) %8, ptr noundef %10, ptr noundef null)
  br i1 %11, label %13, label %12

12:                                               ; preds = %7
  store i1 false, ptr %3, align 1
  br label %15

13:                                               ; preds = %7
  br label %14

14:                                               ; preds = %13
  store i1 true, ptr %3, align 1
  br label %15

15:                                               ; preds = %14, %12
  %16 = load i1, ptr %3, align 1
  ret i1 %16
}

; Function Attrs: mustprogress nounwind uwtable
define internal noundef zeroext i1 @_ZN5clang19RecursiveASTVisitorIN12_GLOBAL__N_113EHCodeVisitorEE18VisitOMPClauseListINS_17OMPNumTeamsClauseEEEbPT_(ptr noundef nonnull align 1 dereferenceable(1) %0, ptr noundef %1) #0 align 2 {
  %3 = alloca i1, align 1
  %4 = alloca ptr, align 8
  %5 = alloca ptr, align 8
  %6 = alloca ptr, align 8
  %7 = alloca %"class.llvm::iterator_range.1384", align 8
  %8 = alloca ptr, align 8
  %9 = alloca ptr, align 8
  %10 = alloca ptr, align 8
  store ptr %0, ptr %4, align 8
  store ptr %1, ptr %5, align 8
  %11 = load ptr, ptr %4, align 8
  %12 = load ptr, ptr %5, align 8
  %13 = call { ptr, ptr } @_ZN5clang16OMPVarListClauseINS_17OMPNumTeamsClauseEE7varlistEv(ptr noundef nonnull align 4 dereferenceable(20) %12)
  %14 = getelementptr inbounds nuw { ptr, ptr }, ptr %7, i32 0, i32 0
  %15 = extractvalue { ptr, ptr } %13, 0
  store ptr %15, ptr %14, align 8
  %16 = getelementptr inbounds nuw { ptr, ptr }, ptr %7, i32 0, i32 1
  %17 = extractvalue { ptr, ptr } %13, 1
  store ptr %17, ptr %16, align 8
  store ptr %7, ptr %6, align 8
  %18 = load ptr, ptr %6, align 8
  %19 = call noundef ptr @_ZNK4llvm14iterator_rangeIPPN5clang4ExprEE5beginEv(ptr noundef nonnull align 8 dereferenceable(16) %18)
  store ptr %19, ptr %8, align 8
  %20 = load ptr, ptr %6, align 8
  %21 = call noundef ptr @_ZNK4llvm14iterator_rangeIPPN5clang4ExprEE3endEv(ptr noundef nonnull align 8 dereferenceable(16) %20)
  store ptr %21, ptr %9, align 8
  br label %22

22:                                               ; preds = %36, %2
  %23 = load ptr, ptr %8, align 8
  %24 = load ptr, ptr %9, align 8
  %25 = icmp ne ptr %23, %24
  br i1 %25, label %26, label %39

26:                                               ; preds = %22
  %27 = load ptr, ptr %8, align 8
  %28 = load ptr, ptr %27, align 8
  store ptr %28, ptr %10, align 8
  br label %29

29:                                               ; preds = %26
  %30 = call noundef nonnull align 8 dereferenceable(16) ptr @_ZN5clang19RecursiveASTVisitorIN12_GLOBAL__N_113EHCodeVisitorEE10getDerivedEv(ptr noundef nonnull align 1 dereferenceable(1) %11)
  %31 = load ptr, ptr %10, align 8
  %32 = call noundef zeroext i1 @_ZN5clang19RecursiveASTVisitorIN12_GLOBAL__N_113EHCodeVisitorEE12TraverseStmtEPNS_4StmtEPN4llvm15SmallVectorImplINS6_14PointerIntPairIS5_Lj1EbNS6_21PointerLikeTypeTraitsIS5_EENS6_18PointerIntPairInfoIS5_Lj1ESA_EEEEEE(ptr noundef nonnull align 1 dereferenceable(1) %30, ptr noundef %31, ptr noundef null)
  br i1 %32, label %34, label %33

33:                                               ; preds = %29
  store i1 false, ptr %3, align 1
  br label %40

34:                                               ; preds = %29
  br label %35

35:                                               ; preds = %34
  br label %36

36:                                               ; preds = %35
  %37 = load ptr, ptr %8, align 8
  %38 = getelementptr inbounds ptr, ptr %37, i32 1
  store ptr %38, ptr %8, align 8
  br label %22

39:                                               ; preds = %22
  store i1 true, ptr %3, align 1
  br label %40

40:                                               ; preds = %39, %33
  %41 = load i1, ptr %3, align 1
  ret i1 %41
}

; Function Attrs: mustprogress nounwind uwtable
define internal noundef nonnull align 8 dereferenceable(16) ptr @_ZN5clang19RecursiveASTVisitorIN12_GLOBAL__N_113EHCodeVisitorEE10getDerivedEv(ptr noundef nonnull align 1 dereferenceable(1) %0) #0 align 2 {
  %2 = alloca ptr, align 8
  store ptr %0, ptr %2, align 8
  %3 = load ptr, ptr %2, align 8
  ret ptr %3
}

; Function Attrs: mustprogress nounwind uwtable
define internal noundef zeroext i1 @_ZN5clang19RecursiveASTVisitorIN12_GLOBAL__N_113EHCodeVisitorEE22VisitOMPNumTeamsClauseEPNS_17OMPNumTeamsClauseE(ptr noundef nonnull align 1 dereferenceable(1) %0, ptr noundef %1) #0 align 2 {
  %3 = alloca i1, align 1
  %4 = alloca ptr, align 8
  %5 = alloca ptr, align 8
  store ptr %0, ptr %4, align 8
  store ptr %1, ptr %5, align 8
  %6 = load ptr, ptr %4, align 8
  br label %7

7:                                                ; preds = %2
  %8 = call noundef nonnull align 8 dereferenceable(16) ptr @_ZN5clang19RecursiveASTVisitorIN12_GLOBAL__N_113EHCodeVisitorEE10getDerivedEv(ptr noundef nonnull align 1 dereferenceable(1) %6)
  %9 = load ptr, ptr %5, align 8
  %10 = call noundef zeroext i1 @_ZN5clang19RecursiveASTVisitorIN12_GLOBAL__N_113EHCodeVisitorEE18VisitOMPClauseListINS_17OMPNumTeamsClauseEEEbPT_(ptr noundef nonnull align 1 dereferenceable(1) %8, ptr noundef %9)
  br i1 %10, label %12, label %11

11:                                               ; preds = %7
  store i1 false, ptr %3, align 1
  br label %26

12:                                               ; preds = %7
  br label %13

13:                                               ; preds = %12
  br label %14

14:                                               ; preds = %13
  %15 = call noundef nonnull align 8 dereferenceable(16) ptr @_ZN5clang19RecursiveASTVisitorIN12_GLOBAL__N_113EHCodeVisitorEE10getDerivedEv(ptr noundef nonnull align 1 dereferenceable(1) %6)
  %16 = load ptr, ptr %5, align 8
  %17 = icmp eq ptr %16, null
  br i1 %17, label %20, label %18

18:                                               ; preds = %14
  %19 = getelementptr inbounds i8, ptr %16, i64 24
  br label %20

20:                                               ; preds = %18, %14
  %21 = phi ptr [ %19, %18 ], [ null, %14 ]
  %22 = call noundef zeroext i1 @_ZN5clang19RecursiveASTVisitorIN12_GLOBAL__N_113EHCodeVisitorEE25VisitOMPClauseWithPreInitEPNS_20OMPClauseWithPreInitE(ptr noundef nonnull align 1 dereferenceable(1) %15, ptr noundef %21)
  br i1 %22, label %24, label %23

23:                                               ; preds = %20
  store i1 false, ptr %3, align 1
  br label %26

24:                                               ; preds = %20
  br label %25

25:                                               ; preds = %24
  store i1 true, ptr %3, align 1
  br label %26

26:                                               ; preds = %25, %23, %11
  %27 = load i1, ptr %3, align 1
  ret i1 %27
}